; Function Attrs: mustprogress nounwind uwtable
define dso_local noundef nonnull align 8 dereferenceable(24) ptr @_ZN14cmFileLockPool9ScopePoolaSEOS0_(ptr noundef nonnull returned align 8 dereferenceable(24) %0, ptr noundef nonnull align 8 dereferenceable(24) %1) local_unnamed_addr #1 align 2 personality ptr @__gxx_personality_v0 {
  %.not = icmp eq ptr %0, %1
  br i1 %.not, label %_ZNSt6vectorI10cmFileLockSaIS0_EEaSEOS2_.exit, label %3

3:                                                ; preds = %2
  %4 = load ptr, ptr %0, align 8
  %5 = getelementptr inbounds nuw i8, ptr %0, i64 8
  %6 = load ptr, ptr %5, align 8
  %7 = getelementptr inbounds nuw i8, ptr %0, i64 16
  %8 = load ptr, ptr %1, align 8
  store ptr %8, ptr %0, align 8
  %9 = getelementptr inbounds nuw i8, ptr %1, i64 8
  %10 = load ptr, ptr %9, align 8
  store ptr %10, ptr %5, align 8
  %11 = getelementptr inbounds nuw i8, ptr %1, i64 16
  %12 = load ptr, ptr %11, align 8
  store ptr %12, ptr %7, align 8
  %.not4.i.i.i.i.i.i = icmp eq ptr %4, %6
  tail call void @llvm.memset.p0.i64(ptr noundef nonnull align 8 dereferenceable(24) %1, i8 0, i64 24, i1 false)
  br i1 %.not4.i.i.i.i.i.i, label %_ZSt8_DestroyIP10cmFileLockS0_EvT_S2_RSaIT0_E.exit.i.i.i, label %.lr.ph.i.i.i.i.i.i

.lr.ph.i.i.i.i.i.i:                               ; preds = %3, %.lr.ph.i.i.i.i.i.i
  %.05.i.i.i.i.i.i = phi ptr [ %13, %.lr.ph.i.i.i.i.i.i ], [ %4, %3 ]
  tail call void @_ZN10cmFileLockD1Ev(ptr noundef nonnull align 8 dereferenceable(40) %.05.i.i.i.i.i.i) #13
  %13 = getelementptr inbounds nuw i8, ptr %.05.i.i.i.i.i.i, i64 40
  %.not.i.i.i.i.i.i = icmp eq ptr %13, %6
  br i1 %.not.i.i.i.i.i.i, label %_ZSt8_DestroyIP10cmFileLockS0_EvT_S2_RSaIT0_E.exit.i.i.i, label %.lr.ph.i.i.i.i.i.i, !llvm.loop !5

_ZSt8_DestroyIP10cmFileLockS0_EvT_S2_RSaIT0_E.exit.i.i.i: ; preds = %.lr.ph.i.i.i.i.i.i, %3
  %.not.i.i.i.i.i = icmp eq ptr %4, null
  br i1 %.not.i.i.i.i.i, label %_ZNSt6vectorI10cmFileLockSaIS0_EEaSEOS2_.exit, label %14

14:                                               ; preds = %_ZSt8_DestroyIP10cmFileLockS0_EvT_S2_RSaIT0_E.exit.i.i.i
  tail call void @_ZdlPv(ptr noundef nonnull %4) #14
  br label %_ZNSt6vectorI10cmFileLockSaIS0_EEaSEOS2_.exit

_ZNSt6vectorI10cmFileLockSaIS0_EEaSEOS2_.exit:    ; preds = %14, %_ZSt8_DestroyIP10cmFileLockS0_EvT_S2_RSaIT0_E.exit.i.i.i, %2
  ret ptr %0
}